target datalayout = "e-m:e-p270:32:32-p271:32:32-p272:64:64-i64:64-i128:128-f80:128-n8:16:32:64-S128"
target triple = "x86_64-pc-linux-gnu"

@_ZN16NavMeshPruneToolD1Ev = dso_local unnamed_addr alias void (ptr), ptr @_ZN16NavMeshPruneToolD2Ev

; Function Attrs: mustprogress nounwind uwtable
define dso_local void @_ZN16NavMeshPruneToolD0Ev(ptr noundef nonnull align 8 dereferenceable(37) %0) unnamed_addr #0 align 2 {
  %2 = alloca ptr, align 8
  store ptr %0, ptr %2, align 8
  %3 = load ptr, ptr %2, align 8
  call void @_ZN16NavMeshPruneToolD1Ev(ptr noundef nonnull align 8 dereferenceable(37) %3) #10
  call void @_ZdlPv(ptr noundef %3) #11
  ret void
}